target datalayout = "e-m:e-p270:32:32-p271:32:32-p272:64:64-i64:64-i128:128-f80:128-n8:16:32:64-S128"
target triple = "x86_64-pc-linux-gnu"

%"struct.duckdb_re2::DFA::State" = type { ptr, i32, i32, ptr }
%"class.duckdb_re2::DFA::StateSaver" = type { ptr, ptr, i32, i32, i8, ptr }

; Function Attrs: mustprogress uwtable
define hidden void @_ZN10duckdb_re23DFA10StateSaverC2EPS0_PNS0_5StateE(ptr noundef nonnull align 8 dereferenceable(40) %0, ptr noundef %1, ptr noundef %2) unnamed_addr #1 align 2 {
  %4 = alloca ptr, align 8
  %5 = alloca ptr, align 8
  %6 = alloca ptr, align 8
  store ptr %0, ptr %4, align 8, !tbaa !190
  store ptr %1, ptr %5, align 8, !tbaa !9
  store ptr %2, ptr %6, align 8, !tbaa !105
  %7 = load ptr, ptr %4, align 8
  %8 = load ptr, ptr %5, align 8, !tbaa !9
  %9 = getelementptr inbounds nuw %"class.duckdb_re2::DFA::StateSaver", ptr %7, i32 0, i32 0
  store ptr %8, ptr %9, align 8, !tbaa !192
  %10 = load ptr, ptr %6, align 8, !tbaa !105
  %11 = icmp ule ptr %10, inttoptr (i64 2 to ptr)
  br i1 %11, label %12, label %19

12:                                               ; preds = %3
  %13 = getelementptr inbounds nuw %"class.duckdb_re2::DFA::StateSaver", ptr %7, i32 0, i32 1
  store ptr null, ptr %13, align 8, !tbaa !194
  %14 = getelementptr inbounds nuw %"class.duckdb_re2::DFA::StateSaver", ptr %7, i32 0, i32 2
  store i32 0, ptr %14, align 8, !tbaa !195
  %15 = getelementptr inbounds nuw %"class.duckdb_re2::DFA::StateSaver", ptr %7, i32 0, i32 3
  store i32 0, ptr %15, align 4, !tbaa !196
  %16 = getelementptr inbounds nuw %"class.duckdb_re2::DFA::StateSaver", ptr %7, i32 0, i32 4
  store i8 1, ptr %16, align 8, !tbaa !197
  %17 = load ptr, ptr %6, align 8, !tbaa !105
  %18 = getelementptr inbounds nuw %"class.duckdb_re2::DFA::StateSaver", ptr %7, i32 0, i32 5
  store ptr %17, ptr %18, align 8, !tbaa !198
  br label %48

19:                                               ; preds = %3
  %20 = getelementptr inbounds nuw %"class.duckdb_re2::DFA::StateSaver", ptr %7, i32 0, i32 4
  store i8 0, ptr %20, align 8, !tbaa !197
  %21 = getelementptr inbounds nuw %"class.duckdb_re2::DFA::StateSaver", ptr %7, i32 0, i32 5
  store ptr null, ptr %21, align 8, !tbaa !198
  %22 = load ptr, ptr %6, align 8, !tbaa !105
  %23 = getelementptr inbounds nuw %"struct.duckdb_re2::DFA::State", ptr %22, i32 0, i32 2
  %24 = load i32, ptr %23, align 4, !tbaa !120
  %25 = getelementptr inbounds nuw %"class.duckdb_re2::DFA::StateSaver", ptr %7, i32 0, i32 3
  store i32 %24, ptr %25, align 4, !tbaa !196
  %26 = load ptr, ptr %6, align 8, !tbaa !105
  %27 = getelementptr inbounds nuw %"struct.duckdb_re2::DFA::State", ptr %26, i32 0, i32 1
  %28 = load i32, ptr %27, align 8, !tbaa !107
  %29 = getelementptr inbounds nuw %"class.duckdb_re2::DFA::StateSaver", ptr %7, i32 0, i32 2
  store i32 %28, ptr %29, align 8, !tbaa !195
  %30 = getelementptr inbounds nuw %"class.duckdb_re2::DFA::StateSaver", ptr %7, i32 0, i32 2
  %31 = load i32, ptr %30, align 8, !tbaa !195
  %32 = sext i32 %31 to i64
  %33 = call { i64, i1 } @llvm.umul.with.overflow.i64(i64 %32, i64 4)
  %34 = extractvalue { i64, i1 } %33, 1
  %35 = extractvalue { i64, i1 } %33, 0
  %36 = select i1 %34, i64 -1, i64 %35
  %37 = call noalias noundef nonnull ptr @_Znam(i64 noundef %36) #18
  %38 = getelementptr inbounds nuw %"class.duckdb_re2::DFA::StateSaver", ptr %7, i32 0, i32 1
  store ptr %37, ptr %38, align 8, !tbaa !194
  %39 = getelementptr inbounds nuw %"class.duckdb_re2::DFA::StateSaver", ptr %7, i32 0, i32 1
  %40 = load ptr, ptr %39, align 8, !tbaa !194
  %41 = load ptr, ptr %6, align 8, !tbaa !105
  %42 = getelementptr inbounds nuw %"struct.duckdb_re2::DFA::State", ptr %41, i32 0, i32 0
  %43 = load ptr, ptr %42, align 8, !tbaa !118
  %44 = getelementptr inbounds nuw %"class.duckdb_re2::DFA::StateSaver", ptr %7, i32 0, i32 2
  %45 = load i32, ptr %44, align 8, !tbaa !195
  %46 = sext i32 %45 to i64
  %47 = mul i64 %46, 4
  call void @llvm.memmove.p0.p0.i64(ptr align 4 %40, ptr align 4 %43, i64 %47, i1 false)
  br label %48

48:                                               ; preds = %19, %12
  ret void
}