; Function Attrs: mustprogress uwtable
define hidden void @_ZN10duckdb_re23DFA10StateSaverC2EPS0_PNS0_5StateE(ptr noundef nonnull writeonly align 8 captures(none) dereferenceable(40) initializes((0, 25), (32, 40)) %0, ptr noundef %1, ptr noundef %2) unnamed_addr #1 align 2 {
  store ptr %1, ptr %0, align 8, !tbaa !162
  %.not = icmp ugt ptr %2, inttoptr (i64 2 to ptr)
  br i1 %.not, label %8, label %4

4:                                                ; preds = %3
  %5 = getelementptr inbounds nuw i8, ptr %0, i64 8
  %6 = getelementptr inbounds nuw i8, ptr %0, i64 24
  tail call void @llvm.memset.p0.i64(ptr noundef nonnull align 8 dereferenceable(16) %5, i8 0, i64 16, i1 false)
  store i8 1, ptr %6, align 8, !tbaa !164
  %7 = getelementptr inbounds nuw i8, ptr %0, i64 32
  store ptr %2, ptr %7, align 8, !tbaa !165
  br label %24

8:                                                ; preds = %3
  %9 = getelementptr inbounds nuw i8, ptr %0, i64 24
  store i8 0, ptr %9, align 8, !tbaa !164
  %10 = getelementptr inbounds nuw i8, ptr %0, i64 32
  store ptr null, ptr %10, align 8, !tbaa !165
  %11 = getelementptr inbounds nuw i8, ptr %2, i64 12
  %12 = load i32, ptr %11, align 4, !tbaa !110
  %13 = getelementptr inbounds nuw i8, ptr %0, i64 20
  store i32 %12, ptr %13, align 4, !tbaa !166
  %14 = getelementptr inbounds nuw i8, ptr %2, i64 8
  %15 = load i32, ptr %14, align 8, !tbaa !107
  %16 = getelementptr inbounds nuw i8, ptr %0, i64 16
  store i32 %15, ptr %16, align 8, !tbaa !167
  %17 = sext i32 %15 to i64
  %18 = icmp slt i32 %15, 0
  %19 = shl nsw i64 %17, 2
  %20 = select i1 %18, i64 -1, i64 %19
  %21 = tail call noalias noundef nonnull ptr @_Znam(i64 noundef %20) #22
  %22 = getelementptr inbounds nuw i8, ptr %0, i64 8
  store ptr %21, ptr %22, align 8, !tbaa !168
  %23 = load ptr, ptr %2, align 8, !tbaa !111
  tail call void @llvm.memmove.p0.p0.i64(ptr nonnull align 4 %21, ptr align 4 %23, i64 %19, i1 false)
  br label %24

24:                                               ; preds = %8, %4
  ret void
}